; Function Attrs: mustprogress nounwind uwtable
define dso_local noundef nonnull ptr @_ZN4llvm26createMIRProfileLoaderPassENSt7__cxx1112basic_stringIcSt11char_traitsIcESaIcEEES5_NS_10sampleprof19FSDiscriminatorPassENS_18IntrusiveRefCntPtrINS_3vfs10FileSystemEEE(ptr noundef %0, ptr noundef %1, i32 noundef %2, ptr noundef captures(none) %3) local_unnamed_addr #0 {
  %5 = alloca %"class.std::__cxx11::basic_string", align 8
  %6 = alloca %"class.std::__cxx11::basic_string", align 8
  %7 = alloca %"class.llvm::IntrusiveRefCntPtr", align 8
  %8 = tail call noalias noundef nonnull dereferenceable(128) ptr @_Znwm(i64 noundef 128) #23
  call void @_ZNSt7__cxx1112basic_stringIcSt11char_traitsIcESaIcEEC1ERKS4_(ptr noundef nonnull align 8 dereferenceable(32) %5, ptr noundef nonnull align 8 dereferenceable(32) %0) #21
  call void @_ZNSt7__cxx1112basic_stringIcSt11char_traitsIcESaIcEEC1ERKS4_(ptr noundef nonnull align 8 dereferenceable(32) %6, ptr noundef nonnull align 8 dereferenceable(32) %1) #21
  %9 = load ptr, ptr %3, align 8
  store ptr %9, ptr %7, align 8
  store ptr null, ptr %3, align 8
  call void @_ZN4llvm20MIRProfileLoaderPassC1ENSt7__cxx1112basic_stringIcSt11char_traitsIcESaIcEEES6_NS_10sampleprof19FSDiscriminatorPassENS_18IntrusiveRefCntPtrINS_3vfs10FileSystemEEE(ptr noundef nonnull align 8 dereferenceable(128) %8, ptr noundef nonnull %5, ptr noundef nonnull %6, i32 noundef %2, ptr noundef nonnull %7) #21
  %10 = load ptr, ptr %7, align 8
  %.not.i.i = icmp eq ptr %10, null
  br i1 %.not.i.i, label %_ZN4llvm18IntrusiveRefCntPtrINS_3vfs10FileSystemEED2Ev.exit, label %11

11:                                               ; preds = %4
  %12 = getelementptr inbounds nuw i8, ptr %10, i64 8
  %13 = atomicrmw sub ptr %12, i32 1 acq_rel, align 4
  %14 = icmp eq i32 %13, 1
  br i1 %14, label %15, label %_ZN4llvm18IntrusiveRefCntPtrINS_3vfs10FileSystemEED2Ev.exit

15:                                               ; preds = %11
  %16 = load ptr, ptr %10, align 8
  %17 = getelementptr inbounds nuw i8, ptr %16, i64 8
  %18 = load ptr, ptr %17, align 8
  call void %18(ptr noundef nonnull align 8 dereferenceable(12) %10) #21
  br label %_ZN4llvm18IntrusiveRefCntPtrINS_3vfs10FileSystemEED2Ev.exit

_ZN4llvm18IntrusiveRefCntPtrINS_3vfs10FileSystemEED2Ev.exit: ; preds = %4, %11, %15
  call void @_ZNSt7__cxx1112basic_stringIcSt11char_traitsIcESaIcEED1Ev(ptr noundef nonnull align 8 dereferenceable(32) %6) #21
  call void @_ZNSt7__cxx1112basic_stringIcSt11char_traitsIcESaIcEED1Ev(ptr noundef nonnull align 8 dereferenceable(32) %5) #21
  ret ptr %8
}